; ModuleID = '11/429.c'
source_filename = "11/429.c"
target datalayout = "e-m:e-p270:32:32-p271:32:32-p272:64:64-i64:64-f80:128-n8:16:32:64-S128"
target triple = "x86_64-pc-linux-gnu"

@.str = private unnamed_addr constant [7 x i8] c"%d%d%d\00", align 1
@.str.1 = private unnamed_addr constant [3 x i8] c"%d\00", align 1

; Function Attrs: noinline nounwind uwtable
define dso_local i32 @main() #0 {
  %1 = alloca i32, align 4
  %2 = alloca i32, align 4
  %3 = alloca i32, align 4
  %4 = alloca i32, align 4
  %5 = alloca i32, align 4
  %6 = alloca i32, align 4
  %7 = alloca i32, align 4
  %8 = alloca [13 x i32], align 16
  %9 = alloca [13 x i32], align 16
  store i32 0, i32* %1, align 4
  store i32 0, i32* %6, align 4
  store i32 0, i32* %7, align 4
  %10 = call i32 (i8*, ...) @__isoc99_scanf(i8* getelementptr inbounds ([7 x i8], [7 x i8]* @.str, i64 0, i64 0), i32* %2, i32* %3, i32* %4)
  %11 = load i32, i32* %2, align 4
  %12 = srem i32 %11, 4
  %13 = icmp eq i32 %12, 0
  br i1 %13, label %14, label %18

14:                                               ; preds = %0
  %15 = load i32, i32* %2, align 4
  %16 = srem i32 %15, 100
  %17 = icmp ne i32 %16, 0
  br i1 %17, label %22, label %18

18:                                               ; preds = %14, %0
  %19 = load i32, i32* %2, align 4
  %20 = srem i32 %19, 400
  %21 = icmp eq i32 %20, 0
  br i1 %21, label %22, label %54

22:                                               ; preds = %18, %14
  %23 = getelementptr inbounds [13 x i32], [13 x i32]* %8, i64 0, i64 12
  store i32 31, i32* %23, align 16
  %24 = getelementptr inbounds [13 x i32], [13 x i32]* %8, i64 0, i64 10
  store i32 31, i32* %24, align 8
  %25 = getelementptr inbounds [13 x i32], [13 x i32]* %8, i64 0, i64 8
  store i32 31, i32* %25, align 16
  %26 = getelementptr inbounds [13 x i32], [13 x i32]* %8, i64 0, i64 7
  store i32 31, i32* %26, align 4
  %27 = getelementptr inbounds [13 x i32], [13 x i32]* %8, i64 0, i64 5
  store i32 31, i32* %27, align 4
  %28 = getelementptr inbounds [13 x i32], [13 x i32]* %8, i64 0, i64 3
  store i32 31, i32* %28, align 4
  %29 = getelementptr inbounds [13 x i32], [13 x i32]* %8, i64 0, i64 1
  store i32 31, i32* %29, align 4
  %30 = getelementptr inbounds [13 x i32], [13 x i32]* %8, i64 0, i64 11
  store i32 30, i32* %30, align 4
  %31 = getelementptr inbounds [13 x i32], [13 x i32]* %8, i64 0, i64 9
  store i32 30, i32* %31, align 4
  %32 = getelementptr inbounds [13 x i32], [13 x i32]* %8, i64 0, i64 6
  store i32 30, i32* %32, align 8
  %33 = getelementptr inbounds [13 x i32], [13 x i32]* %8, i64 0, i64 4
  store i32 30, i32* %33, align 16
  %34 = getelementptr inbounds [13 x i32], [13 x i32]* %8, i64 0, i64 2
  store i32 29, i32* %34, align 8
  %35 = getelementptr inbounds [13 x i32], [13 x i32]* %8, i64 0, i64 0
  store i32 0, i32* %35, align 16
  store i32 0, i32* %5, align 4
  br label %36

36:                                               ; preds = %47, %22
  %37 = load i32, i32* %5, align 4
  %38 = load i32, i32* %3, align 4
  %39 = icmp slt i32 %37, %38
  br i1 %39, label %40, label %50

40:                                               ; preds = %36
  %41 = load i32, i32* %7, align 4
  %42 = load i32, i32* %5, align 4
  %43 = sext i32 %42 to i64
  %44 = getelementptr inbounds [13 x i32], [13 x i32]* %8, i64 0, i64 %43
  %45 = load i32, i32* %44, align 4
  %46 = add nsw i32 %41, %45
  store i32 %46, i32* %7, align 4
  br label %47

47:                                               ; preds = %40
  %48 = load i32, i32* %5, align 4
  %49 = add nsw i32 %48, 1
  store i32 %49, i32* %5, align 4
  br label %36

50:                                               ; preds = %36
  %51 = load i32, i32* %7, align 4
  %52 = load i32, i32* %4, align 4
  %53 = add nsw i32 %51, %52
  store i32 %53, i32* %6, align 4
  br label %86

54:                                               ; preds = %18
  %55 = getelementptr inbounds [13 x i32], [13 x i32]* %9, i64 0, i64 12
  store i32 31, i32* %55, align 16
  %56 = getelementptr inbounds [13 x i32], [13 x i32]* %9, i64 0, i64 10
  store i32 31, i32* %56, align 8
  %57 = getelementptr inbounds [13 x i32], [13 x i32]* %9, i64 0, i64 8
  store i32 31, i32* %57, align 16
  %58 = getelementptr inbounds [13 x i32], [13 x i32]* %9, i64 0, i64 7
  store i32 31, i32* %58, align 4
  %59 = getelementptr inbounds [13 x i32], [13 x i32]* %9, i64 0, i64 5
  store i32 31, i32* %59, align 4
  %60 = getelementptr inbounds [13 x i32], [13 x i32]* %9, i64 0, i64 3
  store i32 31, i32* %60, align 4
  %61 = getelementptr inbounds [13 x i32], [13 x i32]* %9, i64 0, i64 1
  store i32 31, i32* %61, align 4
  %62 = getelementptr inbounds [13 x i32], [13 x i32]* %9, i64 0, i64 11
  store i32 30, i32* %62, align 4
  %63 = getelementptr inbounds [13 x i32], [13 x i32]* %9, i64 0, i64 9
  store i32 30, i32* %63, align 4
  %64 = getelementptr inbounds [13 x i32], [13 x i32]* %9, i64 0, i64 6
  store i32 30, i32* %64, align 8
  %65 = getelementptr inbounds [13 x i32], [13 x i32]* %9, i64 0, i64 4
  store i32 30, i32* %65, align 16
  %66 = getelementptr inbounds [13 x i32], [13 x i32]* %9, i64 0, i64 2
  store i32 28, i32* %66, align 8
  %67 = getelementptr inbounds [13 x i32], [13 x i32]* %9, i64 0, i64 0
  store i32 0, i32* %67, align 16
  store i32 0, i32* %5, align 4
  br label %68

68:                                               ; preds = %79, %54
  %69 = load i32, i32* %5, align 4
  %70 = load i32, i32* %3, align 4
  %71 = icmp slt i32 %69, %70
  br i1 %71, label %72, label %82

72:                                               ; preds = %68
  %73 = load i32, i32* %7, align 4
  %74 = load i32, i32* %5, align 4
  %75 = sext i32 %74 to i64
  %76 = getelementptr inbounds [13 x i32], [13 x i32]* %9, i64 0, i64 %75
  %77 = load i32, i32* %76, align 4
  %78 = add nsw i32 %73, %77
  store i32 %78, i32* %7, align 4
  br label %79

79:                                               ; preds = %72
  %80 = load i32, i32* %5, align 4
  %81 = add nsw i32 %80, 1
  store i32 %81, i32* %5, align 4
  br label %68

82:                                               ; preds = %68
  %83 = load i32, i32* %7, align 4
  %84 = load i32, i32* %4, align 4
  %85 = add nsw i32 %83, %84
  store i32 %85, i32* %6, align 4
  br label %86

86:                                               ; preds = %82, %50
  %87 = load i32, i32* %6, align 4
  %88 = call i32 (i8*, ...) @printf(i8* getelementptr inbounds ([3 x i8], [3 x i8]* @.str.1, i64 0, i64 0), i32 %87)
  ret i32 0
}

declare dso_local i32 @__isoc99_scanf(i8*, ...) #1

declare dso_local i32 @printf(i8*, ...) #1


!llvm.module.flags = !{!0}
!llvm.ident = !{!1}

!0 = !{i32 1, !"wchar_size", i32 4}
!1 = !{!"clang version 10.0.0-4ubuntu1 "}
